; Function Attrs: nounwind uwtable
define void @lv_circle_buf_destroy(ptr noundef %0) local_unnamed_addr #0 {
  %.not = icmp eq ptr %0, null
  br i1 %.not, label %.preheader, label %2

.preheader:                                       ; preds = %1, %.preheader
  br label %.preheader

2:                                                ; preds = %1
  tail call void @lv_array_deinit(ptr noundef nonnull %0) #6
  tail call void @lv_free(ptr noundef nonnull %0) #6
  ret void
}